; Function Attrs: mustprogress uwtable
define void @_ZN6duckdb14ListValueStatsERNS_13ClientContextERNS_23FunctionStatisticsInputE(ptr dead_on_unwind noalias writable sret(%"class.duckdb::unique_ptr.9") align 8 %0, ptr nonnull readnone align 8 captures(none) %1, ptr noundef nonnull readonly align 8 captures(none) dereferenceable(32) %2) #3 personality ptr @__gxx_personality_v0 {
  %4 = alloca %"class.duckdb::BaseStatistics", align 8
  %5 = alloca %"struct.duckdb::LogicalType", align 8
  %6 = getelementptr inbounds nuw i8, ptr %2, i64 16
  %7 = load ptr, ptr %6, align 8, !tbaa !105
  %8 = load ptr, ptr %2, align 8, !tbaa !212
  call void @llvm.lifetime.start.p0(i64 88, ptr nonnull %4) #27
  %9 = getelementptr inbounds nuw i8, ptr %8, i64 56
  call void @_ZN6duckdb11LogicalTypeC1ERKS0_(ptr noundef nonnull align 8 dereferenceable(24) %5, ptr noundef nonnull align 8 dereferenceable(24) %9)
  invoke void @_ZN6duckdb9ListStats11CreateEmptyENS_11LogicalTypeE(ptr dead_on_unwind nonnull writable sret(%"class.duckdb::BaseStatistics") align 8 %4, ptr noundef nonnull %5)
          to label %10 unwind label %15

10:                                               ; preds = %3
  call void @_ZN6duckdb11LogicalTypeD1Ev(ptr noundef nonnull align 8 dereferenceable(24) %5) #27
  %11 = invoke noundef nonnull align 8 dereferenceable(88) ptr @_ZN6duckdb9ListStats13GetChildStatsERNS_14BaseStatisticsE(ptr noundef nonnull align 8 dereferenceable(88) %4)
          to label %.preheader unwind label %17

.preheader:                                       ; preds = %10
  %12 = getelementptr inbounds nuw i8, ptr %7, i64 8
  %13 = load ptr, ptr %12, align 8, !tbaa !213
  %14 = load ptr, ptr %7, align 8, !tbaa !215
  %.not = icmp eq ptr %13, %14
  br i1 %.not, label %._crit_edge, label %.lr.ph

._crit_edge:                                      ; preds = %21, %.preheader
  invoke void @_ZNK6duckdb14BaseStatistics8ToUniqueEv(ptr dead_on_unwind writable sret(%"class.duckdb::unique_ptr.9") align 8 %0, ptr noundef nonnull align 8 dereferenceable(88) %4)
          to label %32 unwind label %17

15:                                               ; preds = %3
  %16 = landingpad { ptr, i32 }
          cleanup
  call void @_ZN6duckdb11LogicalTypeD1Ev(ptr noundef nonnull align 8 dereferenceable(24) %5) #27
  br label %34

17:                                               ; preds = %._crit_edge, %10
  %18 = landingpad { ptr, i32 }
          cleanup
  br label %33

.lr.ph:                                           ; preds = %.preheader, %21
  %.015 = phi i64 [ %22, %21 ], [ 0, %.preheader ]
  %19 = invoke noundef nonnull align 8 dereferenceable(88) ptr @_ZN6duckdb6vectorINS_14BaseStatisticsELb1EEixEm(ptr noundef nonnull align 8 dereferenceable(24) %7, i64 noundef %.015)
          to label %20 unwind label %30

20:                                               ; preds = %.lr.ph
  invoke void @_ZN6duckdb14BaseStatistics5MergeERKS0_(ptr noundef nonnull align 8 dereferenceable(88) %11, ptr noundef nonnull align 8 dereferenceable(88) %19)
          to label %21 unwind label %30

21:                                               ; preds = %20
  %22 = add nuw i64 %.015, 1
  %23 = load ptr, ptr %12, align 8, !tbaa !213
  %24 = load ptr, ptr %7, align 8, !tbaa !215
  %25 = ptrtoint ptr %23 to i64
  %26 = ptrtoint ptr %24 to i64
  %27 = sub i64 %25, %26
  %28 = sdiv exact i64 %27, 88
  %29 = icmp ult i64 %22, %28
  br i1 %29, label %.lr.ph, label %._crit_edge, !llvm.loop !216

30:                                               ; preds = %20, %.lr.ph
  %31 = landingpad { ptr, i32 }
          cleanup
  br label %33

32:                                               ; preds = %._crit_edge
  call void @_ZN6duckdb14BaseStatisticsD1Ev(ptr noundef nonnull align 8 dereferenceable(88) %4) #27
  call void @llvm.lifetime.end.p0(i64 88, ptr nonnull %4) #27
  ret void

33:                                               ; preds = %30, %17
  %.pn = phi { ptr, i32 } [ %31, %30 ], [ %18, %17 ]
  call void @_ZN6duckdb14BaseStatisticsD1Ev(ptr noundef nonnull align 8 dereferenceable(88) %4) #27
  br label %34

34:                                               ; preds = %33, %15
  %.pn.pn = phi { ptr, i32 } [ %.pn, %33 ], [ %16, %15 ]
  call void @llvm.lifetime.end.p0(i64 88, ptr nonnull %4) #27
  resume { ptr, i32 } %.pn.pn
}